ARM GAS  C:\Users\AUSTIN~1\AppData\Local\Temp\ccKlNCOC.s 			page 1


   1              		.cpu cortex-m4
   2              		.arch armv7e-m
   3              		.fpu fpv4-sp-d16
   4              		.eabi_attribute 27, 1
   5              		.eabi_attribute 28, 1
   6              		.eabi_attribute 20, 1
   7              		.eabi_attribute 21, 1
   8              		.eabi_attribute 23, 3
   9              		.eabi_attribute 24, 1
  10              		.eabi_attribute 25, 1
  11              		.eabi_attribute 26, 1
  12              		.eabi_attribute 30, 1
  13              		.eabi_attribute 34, 1
  14              		.eabi_attribute 18, 4
  15              		.file	"usart.c"
  16              		.text
  17              	.Ltext0:
  18              		.cfi_sections	.debug_frame
  19              		.section	.text.MX_LPUART1_UART_Init,"ax",%progbits
  20              		.align	1
  21              		.global	MX_LPUART1_UART_Init
  22              		.syntax unified
  23              		.thumb
  24              		.thumb_func
  26              	MX_LPUART1_UART_Init:
  27              	.LFB132:
  28              		.file 1 "Core/Src/usart.c"
   1:Core/Src/usart.c **** /* USER CODE BEGIN Header */
   2:Core/Src/usart.c **** /**
   3:Core/Src/usart.c ****   ******************************************************************************
   4:Core/Src/usart.c ****   * @file    usart.c
   5:Core/Src/usart.c ****   * @brief   This file provides code for the configuration
   6:Core/Src/usart.c ****   *          of the USART instances.
   7:Core/Src/usart.c ****   ******************************************************************************
   8:Core/Src/usart.c ****   * @attention
   9:Core/Src/usart.c ****   *
  10:Core/Src/usart.c ****   * Copyright (c) 2023 STMicroelectronics.
  11:Core/Src/usart.c ****   * All rights reserved.
  12:Core/Src/usart.c ****   *
  13:Core/Src/usart.c ****   * This software is licensed under terms that can be found in the LICENSE file
  14:Core/Src/usart.c ****   * in the root directory of this software component.
  15:Core/Src/usart.c ****   * If no LICENSE file comes with this software, it is provided AS-IS.
  16:Core/Src/usart.c ****   *
  17:Core/Src/usart.c ****   ******************************************************************************
  18:Core/Src/usart.c ****   */
  19:Core/Src/usart.c **** /* USER CODE END Header */
  20:Core/Src/usart.c **** /* Includes ------------------------------------------------------------------*/
  21:Core/Src/usart.c **** #include "usart.h"
  22:Core/Src/usart.c **** 
  23:Core/Src/usart.c **** /* USER CODE BEGIN 0 */
  24:Core/Src/usart.c **** 
  25:Core/Src/usart.c **** /* USER CODE END 0 */
  26:Core/Src/usart.c **** 
  27:Core/Src/usart.c **** UART_HandleTypeDef hlpuart1;
  28:Core/Src/usart.c **** 
  29:Core/Src/usart.c **** /* LPUART1 init function */
  30:Core/Src/usart.c **** 
ARM GAS  C:\Users\AUSTIN~1\AppData\Local\Temp\ccKlNCOC.s 			page 2


  31:Core/Src/usart.c **** void MX_LPUART1_UART_Init(void)
  32:Core/Src/usart.c **** {
  29              		.loc 1 32 1 view -0
  30              		.cfi_startproc
  31              		@ args = 0, pretend = 0, frame = 0
  32              		@ frame_needed = 0, uses_anonymous_args = 0
  33 0000 08B5     		push	{r3, lr}
  34              	.LCFI0:
  35              		.cfi_def_cfa_offset 8
  36              		.cfi_offset 3, -8
  37              		.cfi_offset 14, -4
  33:Core/Src/usart.c **** 
  34:Core/Src/usart.c ****   /* USER CODE BEGIN LPUART1_Init 0 */
  35:Core/Src/usart.c **** 
  36:Core/Src/usart.c ****   /* USER CODE END LPUART1_Init 0 */
  37:Core/Src/usart.c **** 
  38:Core/Src/usart.c ****   /* USER CODE BEGIN LPUART1_Init 1 */
  39:Core/Src/usart.c **** 
  40:Core/Src/usart.c ****   /* USER CODE END LPUART1_Init 1 */
  41:Core/Src/usart.c ****   hlpuart1.Instance = LPUART1;
  38              		.loc 1 41 3 view .LVU1
  39              		.loc 1 41 21 is_stmt 0 view .LVU2
  40 0002 0B48     		ldr	r0, .L5
  41 0004 0B4B     		ldr	r3, .L5+4
  42 0006 0360     		str	r3, [r0]
  42:Core/Src/usart.c ****   hlpuart1.Init.BaudRate = 209700;
  43              		.loc 1 42 3 is_stmt 1 view .LVU3
  44              		.loc 1 42 26 is_stmt 0 view .LVU4
  45 0008 0B4B     		ldr	r3, .L5+8
  46 000a 4360     		str	r3, [r0, #4]
  43:Core/Src/usart.c ****   hlpuart1.Init.WordLength = UART_WORDLENGTH_7B;
  47              		.loc 1 43 3 is_stmt 1 view .LVU5
  48              		.loc 1 43 28 is_stmt 0 view .LVU6
  49 000c 4FF08053 		mov	r3, #268435456
  50 0010 8360     		str	r3, [r0, #8]
  44:Core/Src/usart.c ****   hlpuart1.Init.StopBits = UART_STOPBITS_1;
  51              		.loc 1 44 3 is_stmt 1 view .LVU7
  52              		.loc 1 44 26 is_stmt 0 view .LVU8
  53 0012 0023     		movs	r3, #0
  54 0014 C360     		str	r3, [r0, #12]
  45:Core/Src/usart.c ****   hlpuart1.Init.Parity = UART_PARITY_NONE;
  55              		.loc 1 45 3 is_stmt 1 view .LVU9
  56              		.loc 1 45 24 is_stmt 0 view .LVU10
  57 0016 0361     		str	r3, [r0, #16]
  46:Core/Src/usart.c ****   hlpuart1.Init.Mode = UART_MODE_TX_RX;
  58              		.loc 1 46 3 is_stmt 1 view .LVU11
  59              		.loc 1 46 22 is_stmt 0 view .LVU12
  60 0018 0C22     		movs	r2, #12
  61 001a 4261     		str	r2, [r0, #20]
  47:Core/Src/usart.c ****   hlpuart1.Init.HwFlowCtl = UART_HWCONTROL_NONE;
  62              		.loc 1 47 3 is_stmt 1 view .LVU13
  63              		.loc 1 47 27 is_stmt 0 view .LVU14
  64 001c 8361     		str	r3, [r0, #24]
  48:Core/Src/usart.c ****   hlpuart1.Init.OneBitSampling = UART_ONE_BIT_SAMPLE_DISABLE;
  65              		.loc 1 48 3 is_stmt 1 view .LVU15
  66              		.loc 1 48 32 is_stmt 0 view .LVU16
  67 001e 0362     		str	r3, [r0, #32]
ARM GAS  C:\Users\AUSTIN~1\AppData\Local\Temp\ccKlNCOC.s 			page 3


  49:Core/Src/usart.c ****   hlpuart1.AdvancedInit.AdvFeatureInit = UART_ADVFEATURE_NO_INIT;
  68              		.loc 1 49 3 is_stmt 1 view .LVU17
  69              		.loc 1 49 40 is_stmt 0 view .LVU18
  70 0020 4362     		str	r3, [r0, #36]
  50:Core/Src/usart.c ****   if (HAL_UART_Init(&hlpuart1) != HAL_OK)
  71              		.loc 1 50 3 is_stmt 1 view .LVU19
  72              		.loc 1 50 7 is_stmt 0 view .LVU20
  73 0022 FFF7FEFF 		bl	HAL_UART_Init
  74              	.LVL0:
  75              		.loc 1 50 6 view .LVU21
  76 0026 00B9     		cbnz	r0, .L4
  77              	.L1:
  51:Core/Src/usart.c ****   {
  52:Core/Src/usart.c ****     Error_Handler();
  53:Core/Src/usart.c ****   }
  54:Core/Src/usart.c ****   /* USER CODE BEGIN LPUART1_Init 2 */
  55:Core/Src/usart.c **** 
  56:Core/Src/usart.c ****   /* USER CODE END LPUART1_Init 2 */
  57:Core/Src/usart.c **** 
  58:Core/Src/usart.c **** }
  78              		.loc 1 58 1 view .LVU22
  79 0028 08BD     		pop	{r3, pc}
  80              	.L4:
  52:Core/Src/usart.c ****   }
  81              		.loc 1 52 5 is_stmt 1 view .LVU23
  82 002a FFF7FEFF 		bl	Error_Handler
  83              	.LVL1:
  84              		.loc 1 58 1 is_stmt 0 view .LVU24
  85 002e FBE7     		b	.L1
  86              	.L6:
  87              		.align	2
  88              	.L5:
  89 0030 00000000 		.word	.LANCHOR0
  90 0034 00800040 		.word	1073774592
  91 0038 24330300 		.word	209700
  92              		.cfi_endproc
  93              	.LFE132:
  95              		.section	.text.HAL_UART_MspInit,"ax",%progbits
  96              		.align	1
  97              		.global	HAL_UART_MspInit
  98              		.syntax unified
  99              		.thumb
 100              		.thumb_func
 102              	HAL_UART_MspInit:
 103              	.LVL2:
 104              	.LFB133:
  59:Core/Src/usart.c **** 
  60:Core/Src/usart.c **** void HAL_UART_MspInit(UART_HandleTypeDef* uartHandle)
  61:Core/Src/usart.c **** {
 105              		.loc 1 61 1 is_stmt 1 view -0
 106              		.cfi_startproc
 107              		@ args = 0, pretend = 0, frame = 168
 108              		@ frame_needed = 0, uses_anonymous_args = 0
 109              		.loc 1 61 1 is_stmt 0 view .LVU26
 110 0000 10B5     		push	{r4, lr}
 111              	.LCFI1:
 112              		.cfi_def_cfa_offset 8
ARM GAS  C:\Users\AUSTIN~1\AppData\Local\Temp\ccKlNCOC.s 			page 4


 113              		.cfi_offset 4, -8
 114              		.cfi_offset 14, -4
 115 0002 AAB0     		sub	sp, sp, #168
 116              	.LCFI2:
 117              		.cfi_def_cfa_offset 176
 118 0004 0446     		mov	r4, r0
  62:Core/Src/usart.c **** 
  63:Core/Src/usart.c ****   GPIO_InitTypeDef GPIO_InitStruct = {0};
 119              		.loc 1 63 3 is_stmt 1 view .LVU27
 120              		.loc 1 63 20 is_stmt 0 view .LVU28
 121 0006 0021     		movs	r1, #0
 122 0008 2591     		str	r1, [sp, #148]
 123 000a 2691     		str	r1, [sp, #152]
 124 000c 2791     		str	r1, [sp, #156]
 125 000e 2891     		str	r1, [sp, #160]
 126 0010 2991     		str	r1, [sp, #164]
  64:Core/Src/usart.c ****   RCC_PeriphCLKInitTypeDef PeriphClkInit = {0};
 127              		.loc 1 64 3 is_stmt 1 view .LVU29
 128              		.loc 1 64 28 is_stmt 0 view .LVU30
 129 0012 8822     		movs	r2, #136
 130 0014 03A8     		add	r0, sp, #12
 131              	.LVL3:
 132              		.loc 1 64 28 view .LVU31
 133 0016 FFF7FEFF 		bl	memset
 134              	.LVL4:
  65:Core/Src/usart.c ****   if(uartHandle->Instance==LPUART1)
 135              		.loc 1 65 3 is_stmt 1 view .LVU32
 136              		.loc 1 65 16 is_stmt 0 view .LVU33
 137 001a 2268     		ldr	r2, [r4]
 138              		.loc 1 65 5 view .LVU34
 139 001c 174B     		ldr	r3, .L13
 140 001e 9A42     		cmp	r2, r3
 141 0020 01D0     		beq	.L11
 142              	.L7:
  66:Core/Src/usart.c ****   {
  67:Core/Src/usart.c ****   /* USER CODE BEGIN LPUART1_MspInit 0 */
  68:Core/Src/usart.c **** 
  69:Core/Src/usart.c ****   /* USER CODE END LPUART1_MspInit 0 */
  70:Core/Src/usart.c **** 
  71:Core/Src/usart.c ****   /** Initializes the peripherals clock
  72:Core/Src/usart.c ****   */
  73:Core/Src/usart.c ****     PeriphClkInit.PeriphClockSelection = RCC_PERIPHCLK_LPUART1;
  74:Core/Src/usart.c ****     PeriphClkInit.Lpuart1ClockSelection = RCC_LPUART1CLKSOURCE_PCLK1;
  75:Core/Src/usart.c ****     if (HAL_RCCEx_PeriphCLKConfig(&PeriphClkInit) != HAL_OK)
  76:Core/Src/usart.c ****     {
  77:Core/Src/usart.c ****       Error_Handler();
  78:Core/Src/usart.c ****     }
  79:Core/Src/usart.c **** 
  80:Core/Src/usart.c ****     /* LPUART1 clock enable */
  81:Core/Src/usart.c ****     __HAL_RCC_LPUART1_CLK_ENABLE();
  82:Core/Src/usart.c **** 
  83:Core/Src/usart.c ****     __HAL_RCC_GPIOC_CLK_ENABLE();
  84:Core/Src/usart.c ****     /**LPUART1 GPIO Configuration
  85:Core/Src/usart.c ****     PC0     ------> LPUART1_RX
  86:Core/Src/usart.c ****     PC1     ------> LPUART1_TX
  87:Core/Src/usart.c ****     */
  88:Core/Src/usart.c ****     GPIO_InitStruct.Pin = GPIO_PIN_0|GPIO_PIN_1;
ARM GAS  C:\Users\AUSTIN~1\AppData\Local\Temp\ccKlNCOC.s 			page 5


  89:Core/Src/usart.c ****     GPIO_InitStruct.Mode = GPIO_MODE_AF_PP;
  90:Core/Src/usart.c ****     GPIO_InitStruct.Pull = GPIO_NOPULL;
  91:Core/Src/usart.c ****     GPIO_InitStruct.Speed = GPIO_SPEED_FREQ_VERY_HIGH;
  92:Core/Src/usart.c ****     GPIO_InitStruct.Alternate = GPIO_AF8_LPUART1;
  93:Core/Src/usart.c ****     HAL_GPIO_Init(GPIOC, &GPIO_InitStruct);
  94:Core/Src/usart.c **** 
  95:Core/Src/usart.c ****   /* USER CODE BEGIN LPUART1_MspInit 1 */
  96:Core/Src/usart.c **** 
  97:Core/Src/usart.c ****   /* USER CODE END LPUART1_MspInit 1 */
  98:Core/Src/usart.c ****   }
  99:Core/Src/usart.c **** }
 143              		.loc 1 99 1 view .LVU35
 144 0022 2AB0     		add	sp, sp, #168
 145              	.LCFI3:
 146              		.cfi_remember_state
 147              		.cfi_def_cfa_offset 8
 148              		@ sp needed
 149 0024 10BD     		pop	{r4, pc}
 150              	.LVL5:
 151              	.L11:
 152              	.LCFI4:
 153              		.cfi_restore_state
  73:Core/Src/usart.c ****     PeriphClkInit.Lpuart1ClockSelection = RCC_LPUART1CLKSOURCE_PCLK1;
 154              		.loc 1 73 5 is_stmt 1 view .LVU36
  73:Core/Src/usart.c ****     PeriphClkInit.Lpuart1ClockSelection = RCC_LPUART1CLKSOURCE_PCLK1;
 155              		.loc 1 73 40 is_stmt 0 view .LVU37
 156 0026 2023     		movs	r3, #32
 157 0028 0393     		str	r3, [sp, #12]
  74:Core/Src/usart.c ****     if (HAL_RCCEx_PeriphCLKConfig(&PeriphClkInit) != HAL_OK)
 158              		.loc 1 74 5 is_stmt 1 view .LVU38
  75:Core/Src/usart.c ****     {
 159              		.loc 1 75 5 view .LVU39
  75:Core/Src/usart.c ****     {
 160              		.loc 1 75 9 is_stmt 0 view .LVU40
 161 002a 03A8     		add	r0, sp, #12
 162 002c FFF7FEFF 		bl	HAL_RCCEx_PeriphCLKConfig
 163              	.LVL6:
  75:Core/Src/usart.c ****     {
 164              		.loc 1 75 8 view .LVU41
 165 0030 00BB     		cbnz	r0, .L12
 166              	.L9:
  81:Core/Src/usart.c **** 
 167              		.loc 1 81 5 is_stmt 1 view .LVU42
 168              	.LBB2:
  81:Core/Src/usart.c **** 
 169              		.loc 1 81 5 view .LVU43
  81:Core/Src/usart.c **** 
 170              		.loc 1 81 5 view .LVU44
 171 0032 134B     		ldr	r3, .L13+4
 172 0034 DA6D     		ldr	r2, [r3, #92]
 173 0036 42F00102 		orr	r2, r2, #1
 174 003a DA65     		str	r2, [r3, #92]
  81:Core/Src/usart.c **** 
 175              		.loc 1 81 5 view .LVU45
 176 003c DA6D     		ldr	r2, [r3, #92]
 177 003e 02F00102 		and	r2, r2, #1
 178 0042 0192     		str	r2, [sp, #4]
ARM GAS  C:\Users\AUSTIN~1\AppData\Local\Temp\ccKlNCOC.s 			page 6


  81:Core/Src/usart.c **** 
 179              		.loc 1 81 5 view .LVU46
 180 0044 019A     		ldr	r2, [sp, #4]
 181              	.LBE2:
  81:Core/Src/usart.c **** 
 182              		.loc 1 81 5 view .LVU47
  83:Core/Src/usart.c ****     /**LPUART1 GPIO Configuration
 183              		.loc 1 83 5 view .LVU48
 184              	.LBB3:
  83:Core/Src/usart.c ****     /**LPUART1 GPIO Configuration
 185              		.loc 1 83 5 view .LVU49
  83:Core/Src/usart.c ****     /**LPUART1 GPIO Configuration
 186              		.loc 1 83 5 view .LVU50
 187 0046 DA6C     		ldr	r2, [r3, #76]
 188 0048 42F00402 		orr	r2, r2, #4
 189 004c DA64     		str	r2, [r3, #76]
  83:Core/Src/usart.c ****     /**LPUART1 GPIO Configuration
 190              		.loc 1 83 5 view .LVU51
 191 004e DB6C     		ldr	r3, [r3, #76]
 192 0050 03F00403 		and	r3, r3, #4
 193 0054 0293     		str	r3, [sp, #8]
  83:Core/Src/usart.c ****     /**LPUART1 GPIO Configuration
 194              		.loc 1 83 5 view .LVU52
 195 0056 029B     		ldr	r3, [sp, #8]
 196              	.LBE3:
  83:Core/Src/usart.c ****     /**LPUART1 GPIO Configuration
 197              		.loc 1 83 5 view .LVU53
  88:Core/Src/usart.c ****     GPIO_InitStruct.Mode = GPIO_MODE_AF_PP;
 198              		.loc 1 88 5 view .LVU54
  88:Core/Src/usart.c ****     GPIO_InitStruct.Mode = GPIO_MODE_AF_PP;
 199              		.loc 1 88 25 is_stmt 0 view .LVU55
 200 0058 0323     		movs	r3, #3
 201 005a 2593     		str	r3, [sp, #148]
  89:Core/Src/usart.c ****     GPIO_InitStruct.Pull = GPIO_NOPULL;
 202              		.loc 1 89 5 is_stmt 1 view .LVU56
  89:Core/Src/usart.c ****     GPIO_InitStruct.Pull = GPIO_NOPULL;
 203              		.loc 1 89 26 is_stmt 0 view .LVU57
 204 005c 0222     		movs	r2, #2
 205 005e 2692     		str	r2, [sp, #152]
  90:Core/Src/usart.c ****     GPIO_InitStruct.Speed = GPIO_SPEED_FREQ_VERY_HIGH;
 206              		.loc 1 90 5 is_stmt 1 view .LVU58
  90:Core/Src/usart.c ****     GPIO_InitStruct.Speed = GPIO_SPEED_FREQ_VERY_HIGH;
 207              		.loc 1 90 26 is_stmt 0 view .LVU59
 208 0060 0022     		movs	r2, #0
 209 0062 2792     		str	r2, [sp, #156]
  91:Core/Src/usart.c ****     GPIO_InitStruct.Alternate = GPIO_AF8_LPUART1;
 210              		.loc 1 91 5 is_stmt 1 view .LVU60
  91:Core/Src/usart.c ****     GPIO_InitStruct.Alternate = GPIO_AF8_LPUART1;
 211              		.loc 1 91 27 is_stmt 0 view .LVU61
 212 0064 2893     		str	r3, [sp, #160]
  92:Core/Src/usart.c ****     HAL_GPIO_Init(GPIOC, &GPIO_InitStruct);
 213              		.loc 1 92 5 is_stmt 1 view .LVU62
  92:Core/Src/usart.c ****     HAL_GPIO_Init(GPIOC, &GPIO_InitStruct);
 214              		.loc 1 92 31 is_stmt 0 view .LVU63
 215 0066 0823     		movs	r3, #8
 216 0068 2993     		str	r3, [sp, #164]
  93:Core/Src/usart.c **** 
ARM GAS  C:\Users\AUSTIN~1\AppData\Local\Temp\ccKlNCOC.s 			page 7


 217              		.loc 1 93 5 is_stmt 1 view .LVU64
 218 006a 25A9     		add	r1, sp, #148
 219 006c 0548     		ldr	r0, .L13+8
 220 006e FFF7FEFF 		bl	HAL_GPIO_Init
 221              	.LVL7:
 222              		.loc 1 99 1 is_stmt 0 view .LVU65
 223 0072 D6E7     		b	.L7
 224              	.L12:
  77:Core/Src/usart.c ****     }
 225              		.loc 1 77 7 is_stmt 1 view .LVU66
 226 0074 FFF7FEFF 		bl	Error_Handler
 227              	.LVL8:
 228 0078 DBE7     		b	.L9
 229              	.L14:
 230 007a 00BF     		.align	2
 231              	.L13:
 232 007c 00800040 		.word	1073774592
 233 0080 00100240 		.word	1073876992
 234 0084 00080048 		.word	1207961600
 235              		.cfi_endproc
 236              	.LFE133:
 238              		.section	.text.HAL_UART_MspDeInit,"ax",%progbits
 239              		.align	1
 240              		.global	HAL_UART_MspDeInit
 241              		.syntax unified
 242              		.thumb
 243              		.thumb_func
 245              	HAL_UART_MspDeInit:
 246              	.LVL9:
 247              	.LFB134:
 100:Core/Src/usart.c **** 
 101:Core/Src/usart.c **** void HAL_UART_MspDeInit(UART_HandleTypeDef* uartHandle)
 102:Core/Src/usart.c **** {
 248              		.loc 1 102 1 view -0
 249              		.cfi_startproc
 250              		@ args = 0, pretend = 0, frame = 0
 251              		@ frame_needed = 0, uses_anonymous_args = 0
 252              		.loc 1 102 1 is_stmt 0 view .LVU68
 253 0000 08B5     		push	{r3, lr}
 254              	.LCFI5:
 255              		.cfi_def_cfa_offset 8
 256              		.cfi_offset 3, -8
 257              		.cfi_offset 14, -4
 103:Core/Src/usart.c **** 
 104:Core/Src/usart.c ****   if(uartHandle->Instance==LPUART1)
 258              		.loc 1 104 3 is_stmt 1 view .LVU69
 259              		.loc 1 104 16 is_stmt 0 view .LVU70
 260 0002 0268     		ldr	r2, [r0]
 261              		.loc 1 104 5 view .LVU71
 262 0004 064B     		ldr	r3, .L19
 263 0006 9A42     		cmp	r2, r3
 264 0008 00D0     		beq	.L18
 265              	.LVL10:
 266              	.L15:
 105:Core/Src/usart.c ****   {
 106:Core/Src/usart.c ****   /* USER CODE BEGIN LPUART1_MspDeInit 0 */
 107:Core/Src/usart.c **** 
ARM GAS  C:\Users\AUSTIN~1\AppData\Local\Temp\ccKlNCOC.s 			page 8


 108:Core/Src/usart.c ****   /* USER CODE END LPUART1_MspDeInit 0 */
 109:Core/Src/usart.c ****     /* Peripheral clock disable */
 110:Core/Src/usart.c ****     __HAL_RCC_LPUART1_CLK_DISABLE();
 111:Core/Src/usart.c **** 
 112:Core/Src/usart.c ****     /**LPUART1 GPIO Configuration
 113:Core/Src/usart.c ****     PC0     ------> LPUART1_RX
 114:Core/Src/usart.c ****     PC1     ------> LPUART1_TX
 115:Core/Src/usart.c ****     */
 116:Core/Src/usart.c ****     HAL_GPIO_DeInit(GPIOC, GPIO_PIN_0|GPIO_PIN_1);
 117:Core/Src/usart.c **** 
 118:Core/Src/usart.c ****   /* USER CODE BEGIN LPUART1_MspDeInit 1 */
 119:Core/Src/usart.c **** 
 120:Core/Src/usart.c ****   /* USER CODE END LPUART1_MspDeInit 1 */
 121:Core/Src/usart.c ****   }
 122:Core/Src/usart.c **** }
 267              		.loc 1 122 1 view .LVU72
 268 000a 08BD     		pop	{r3, pc}
 269              	.LVL11:
 270              	.L18:
 110:Core/Src/usart.c **** 
 271              		.loc 1 110 5 is_stmt 1 view .LVU73
 272 000c 054A     		ldr	r2, .L19+4
 273 000e D36D     		ldr	r3, [r2, #92]
 274 0010 23F00103 		bic	r3, r3, #1
 275 0014 D365     		str	r3, [r2, #92]
 116:Core/Src/usart.c **** 
 276              		.loc 1 116 5 view .LVU74
 277 0016 0321     		movs	r1, #3
 278 0018 0348     		ldr	r0, .L19+8
 279              	.LVL12:
 116:Core/Src/usart.c **** 
 280              		.loc 1 116 5 is_stmt 0 view .LVU75
 281 001a FFF7FEFF 		bl	HAL_GPIO_DeInit
 282              	.LVL13:
 283              		.loc 1 122 1 view .LVU76
 284 001e F4E7     		b	.L15
 285              	.L20:
 286              		.align	2
 287              	.L19:
 288 0020 00800040 		.word	1073774592
 289 0024 00100240 		.word	1073876992
 290 0028 00080048 		.word	1207961600
 291              		.cfi_endproc
 292              	.LFE134:
 294              		.global	hlpuart1
 295              		.section	.bss.hlpuart1,"aw",%nobits
 296              		.align	2
 297              		.set	.LANCHOR0,. + 0
 300              	hlpuart1:
 301 0000 00000000 		.space	132
 301      00000000 
 301      00000000 
 301      00000000 
 301      00000000 
 302              		.text
 303              	.Letext0:
 304              		.file 2 "c:\\program files (x86)\\gnu arm embedded toolchain\\10 2021.10\\arm-none-eabi\\include\\
ARM GAS  C:\Users\AUSTIN~1\AppData\Local\Temp\ccKlNCOC.s 			page 9


 305              		.file 3 "c:\\program files (x86)\\gnu arm embedded toolchain\\10 2021.10\\arm-none-eabi\\include\\
 306              		.file 4 "Drivers/CMSIS/Device/ST/STM32L4xx/Include/stm32l476xx.h"
 307              		.file 5 "Drivers/STM32L4xx_HAL_Driver/Inc/stm32l4xx_hal_def.h"
 308              		.file 6 "Drivers/STM32L4xx_HAL_Driver/Inc/stm32l4xx_hal_rcc_ex.h"
 309              		.file 7 "Drivers/STM32L4xx_HAL_Driver/Inc/stm32l4xx_hal_gpio.h"
 310              		.file 8 "Drivers/STM32L4xx_HAL_Driver/Inc/stm32l4xx_hal_dma.h"
 311              		.file 9 "Drivers/STM32L4xx_HAL_Driver/Inc/stm32l4xx_hal_uart.h"
 312              		.file 10 "Core/Inc/main.h"
 313              		.file 11 "Core/Inc/usart.h"
 314              		.file 12 "<built-in>"
ARM GAS  C:\Users\AUSTIN~1\AppData\Local\Temp\ccKlNCOC.s 			page 10

